target datalayout = "e-m:e-p270:32:32-p271:32:32-p272:64:64-i64:64-i128:128-f80:128-n8:16:32:64-S128"
target triple = "x86_64-unknown-linux-gnu"

%"class.QuantLib::SquareRootProcessRNDCalculator" = type { %"class.QuantLib::RiskNeutralDensityCalculator", double, double, double, double, double }
%"class.QuantLib::RiskNeutralDensityCalculator" = type { ptr }
%"class.boost::math::non_central_chi_squared_distribution" = type { double, double }
%"class.boost::math::policies::policy" = type { i8 }
%"struct.boost::math::detail::native_tag" = type { i8 }
%"class.boost::math::policies::domain_error" = type { i8 }

@.str = private unnamed_addr constant [102 x i8] c"boost::math::non_central_chi_squared_distribution<%1%>::non_central_chi_squared_distribution(%1%,%1%)\00", align 1
@.str.6 = private unnamed_addr constant [54 x i8] c"Degrees of freedom argument is %1%, but must be > 0 !\00", align 1
@.str.7 = private unnamed_addr constant [40 x i8] c"Domain Error evaluating function at %1%\00", align 1
@.str.18 = private unnamed_addr constant [91 x i8] c"Non centrality parameter is %1%, but must be > 0, and a countable value such that x+1 != x\00", align 1

; Function Attrs: mustprogress nounwind uwtable
define linkonce_odr noundef double @_ZNSt14numeric_limitsIdE9quiet_NaNEv() #0 comdat align 2 {
entry:
  ret double 0x7FF8000000000000
}

; Function Attrs: mustprogress nounwind uwtable
define linkonce_odr noundef zeroext i1 @_ZSt8isfinited(double noundef %__x) #0 comdat {
entry:
  %__x.addr = alloca double, align 8
  store double %__x, ptr %__x.addr, align 8, !tbaa !7
  %0 = load double, ptr %__x.addr, align 8, !tbaa !7
  %1 = call i1 @llvm.is.fpclass.f64(double %0, i32 504)
  ret i1 %1
}

; Function Attrs: inlinehint mustprogress uwtable
define linkonce_odr noundef double @_ZN5boost4math8policies6detail18raise_domain_errorIdEET_PKcS6_RKS4_RKNS1_12domain_errorILNS1_17error_policy_typeE0EEE(ptr noundef %function, ptr noundef %message, ptr noundef nonnull align 8 dereferenceable(8) %val, ptr noundef nonnull align 1 dereferenceable(1) %0) #5 comdat {
entry:
  %function.addr = alloca ptr, align 8
  %message.addr = alloca ptr, align 8
  %val.addr = alloca ptr, align 8
  %.addr = alloca ptr, align 8
  store ptr %function, ptr %function.addr, align 8, !tbaa !3
  store ptr %message, ptr %message.addr, align 8, !tbaa !3
  store ptr %val, ptr %val.addr, align 8, !tbaa !3
  store ptr %0, ptr %.addr, align 8, !tbaa !3
  %1 = load ptr, ptr %function.addr, align 8, !tbaa !3
  %2 = load ptr, ptr %message.addr, align 8, !tbaa !3
  %3 = load ptr, ptr %val.addr, align 8, !tbaa !3
  call void @_ZN5boost4math8policies6detail11raise_errorISt12domain_errordEEvPKcS6_RKT0_(ptr noundef %1, ptr noundef %2, ptr noundef nonnull align 8 dereferenceable(8) %3)
  %call = call noundef double @_ZNSt14numeric_limitsIdE9quiet_NaNEv() #25
  ret double %call
}

; Function Attrs: inlinehint mustprogress uwtable
define linkonce_odr noundef zeroext i1 @_ZN5boost4math6detail13isfinite_implIdEEbT_RKNS1_10native_tagE(double noundef %x, ptr noundef nonnull align 1 dereferenceable(1) %0) #5 comdat {
entry:
  %x.addr = alloca double, align 8
  %.addr = alloca ptr, align 8
  store double %x, ptr %x.addr, align 8, !tbaa !7
  store ptr %0, ptr %.addr, align 8, !tbaa !3
  %1 = load double, ptr %x.addr, align 8, !tbaa !7
  %call = call noundef zeroext i1 @_ZSt8isfinited(double noundef %1)
  ret i1 %call
}

; Function Attrs: inlinehint mustprogress uwtable
define linkonce_odr noundef double @_ZN5boost4math8policies18raise_domain_errorIdNS1_6policyINS1_14default_policyES4_S4_S4_S4_S4_S4_S4_S4_S4_S4_S4_S4_EEEET_PKcS8_RKS6_RKT0_(ptr noundef %function, ptr noundef %message, ptr noundef nonnull align 8 dereferenceable(8) %val, ptr noundef nonnull align 1 dereferenceable(1) %0) #5 comdat {
entry:
  %function.addr = alloca ptr, align 8
  %message.addr = alloca ptr, align 8
  %val.addr = alloca ptr, align 8
  %.addr = alloca ptr, align 8
  %ref.tmp = alloca %"class.boost::math::policies::domain_error", align 1
  store ptr %function, ptr %function.addr, align 8, !tbaa !3
  store ptr %message, ptr %message.addr, align 8, !tbaa !3
  store ptr %val, ptr %val.addr, align 8, !tbaa !3
  store ptr %0, ptr %.addr, align 8, !tbaa !3
  %1 = load ptr, ptr %function.addr, align 8, !tbaa !3
  %2 = load ptr, ptr %message.addr, align 8, !tbaa !3
  %tobool = icmp ne ptr %2, null
  br i1 %tobool, label %cond.true, label %cond.false

cond.true:                                        ; preds = %entry
  %3 = load ptr, ptr %message.addr, align 8, !tbaa !3
  br label %cond.end

cond.false:                                       ; preds = %entry
  br label %cond.end

cond.end:                                         ; preds = %cond.false, %cond.true
  %cond = phi ptr [ %3, %cond.true ], [ @.str.7, %cond.false ]
  %4 = load ptr, ptr %val.addr, align 8, !tbaa !3
  call void @llvm.lifetime.start.p0(i64 1, ptr %ref.tmp) #25
  %call = call noundef double @_ZN5boost4math8policies6detail18raise_domain_errorIdEET_PKcS6_RKS4_RKNS1_12domain_errorILNS1_17error_policy_typeE0EEE(ptr noundef %1, ptr noundef %cond, ptr noundef nonnull align 8 dereferenceable(8) %4, ptr noundef nonnull align 1 dereferenceable(1) %ref.tmp)
  call void @llvm.lifetime.end.p0(i64 1, ptr %ref.tmp) #25
  ret double %call
}

; Function Attrs: inlinehint mustprogress uwtable
define linkonce_odr noundef zeroext i1 @_ZN5boost4math8isfiniteIdEEbT_(double noundef %x) #5 comdat {
entry:
  %x.addr = alloca double, align 8
  %ref.tmp = alloca %"struct.boost::math::detail::native_tag", align 1
  store double %x, ptr %x.addr, align 8, !tbaa !7
  %0 = load double, ptr %x.addr, align 8, !tbaa !7
  call void @llvm.lifetime.start.p0(i64 1, ptr %ref.tmp) #25
  %call = call noundef zeroext i1 @_ZN5boost4math6detail13isfinite_implIdEEbT_RKNS1_10native_tagE(double noundef %0, ptr noundef nonnull align 1 dereferenceable(1) %ref.tmp)
  call void @llvm.lifetime.end.p0(i64 1, ptr %ref.tmp) #25
  ret i1 %call
}

; Function Attrs: inlinehint mustprogress uwtable
define linkonce_odr noundef zeroext i1 @_ZN5boost4math6detail20check_non_centralityIdNS0_8policies6policyINS3_14default_policyES5_S5_S5_S5_S5_S5_S5_S5_S5_S5_S5_S5_EEEEbPKcT_PS9_RKT0_(ptr noundef %function, double noundef %ncp, ptr noundef %result, ptr noundef nonnull align 1 dereferenceable(1) %pol) #5 comdat {
entry:
  %retval = alloca i1, align 1
  %function.addr = alloca ptr, align 8
  %ncp.addr = alloca double, align 8
  %result.addr = alloca ptr, align 8
  %pol.addr = alloca ptr, align 8
  store ptr %function, ptr %function.addr, align 8, !tbaa !3
  store double %ncp, ptr %ncp.addr, align 8, !tbaa !7
  store ptr %result, ptr %result.addr, align 8, !tbaa !3
  store ptr %pol, ptr %pol.addr, align 8, !tbaa !3
  %0 = load double, ptr %ncp.addr, align 8, !tbaa !7
  %cmp = fcmp olt double %0, 0.000000e+00
  br i1 %cmp, label %if.then, label %lor.lhs.false

lor.lhs.false:                                    ; preds = %entry
  %1 = load double, ptr %ncp.addr, align 8, !tbaa !7
  %call = call noundef zeroext i1 @_ZN5boost4math8isfiniteIdEEbT_(double noundef %1)
  br i1 %call, label %lor.lhs.false1, label %if.then

lor.lhs.false1:                                   ; preds = %lor.lhs.false
  %2 = load double, ptr %ncp.addr, align 8, !tbaa !7
  %cmp2 = fcmp ogt double %2, 0x43E0000000000000
  br i1 %cmp2, label %if.then, label %if.end

if.then:                                          ; preds = %lor.lhs.false1, %lor.lhs.false, %entry
  %3 = load ptr, ptr %function.addr, align 8, !tbaa !3
  %4 = load ptr, ptr %pol.addr, align 8, !tbaa !3
  %call3 = call noundef double @_ZN5boost4math8policies18raise_domain_errorIdNS1_6policyINS1_14default_policyES4_S4_S4_S4_S4_S4_S4_S4_S4_S4_S4_S4_EEEET_PKcS8_RKS6_RKT0_(ptr noundef %3, ptr noundef @.str.18, ptr noundef nonnull align 8 dereferenceable(8) %ncp.addr, ptr noundef nonnull align 1 dereferenceable(1) %4)
  %5 = load ptr, ptr %result.addr, align 8, !tbaa !3
  store double %call3, ptr %5, align 8, !tbaa !7
  store i1 false, ptr %retval, align 1
  br label %return

if.end:                                           ; preds = %lor.lhs.false1
  store i1 true, ptr %retval, align 1
  br label %return

return:                                           ; preds = %if.end, %if.then
  %6 = load i1, ptr %retval, align 1
  ret i1 %6
}

; Function Attrs: inlinehint mustprogress uwtable
define linkonce_odr noundef zeroext i1 @_ZN5boost4math6detail8check_dfIdNS0_8policies6policyINS3_14default_policyES5_S5_S5_S5_S5_S5_S5_S5_S5_S5_S5_S5_EEEEbPKcRKT_PS9_RKT0_(ptr noundef %function, ptr noundef nonnull align 8 dereferenceable(8) %df, ptr noundef %result, ptr noundef nonnull align 1 dereferenceable(1) %pol) #5 comdat {
entry:
  %retval = alloca i1, align 1
  %function.addr = alloca ptr, align 8
  %df.addr = alloca ptr, align 8
  %result.addr = alloca ptr, align 8
  %pol.addr = alloca ptr, align 8
  store ptr %function, ptr %function.addr, align 8, !tbaa !3
  store ptr %df, ptr %df.addr, align 8, !tbaa !3
  store ptr %result, ptr %result.addr, align 8, !tbaa !3
  store ptr %pol, ptr %pol.addr, align 8, !tbaa !3
  %0 = load ptr, ptr %df.addr, align 8, !tbaa !3
  %1 = load double, ptr %0, align 8, !tbaa !7
  %cmp = fcmp ole double %1, 0.000000e+00
  br i1 %cmp, label %if.then, label %lor.lhs.false

lor.lhs.false:                                    ; preds = %entry
  %2 = load ptr, ptr %df.addr, align 8, !tbaa !3
  %3 = load double, ptr %2, align 8, !tbaa !7
  %call = call noundef zeroext i1 @_ZN5boost4math8isfiniteIdEEbT_(double noundef %3)
  br i1 %call, label %if.end, label %if.then

if.then:                                          ; preds = %lor.lhs.false, %entry
  %4 = load ptr, ptr %function.addr, align 8, !tbaa !3
  %5 = load ptr, ptr %df.addr, align 8, !tbaa !3
  %6 = load ptr, ptr %pol.addr, align 8, !tbaa !3
  %call1 = call noundef double @_ZN5boost4math8policies18raise_domain_errorIdNS1_6policyINS1_14default_policyES4_S4_S4_S4_S4_S4_S4_S4_S4_S4_S4_S4_EEEET_PKcS8_RKS6_RKT0_(ptr noundef %4, ptr noundef @.str.6, ptr noundef nonnull align 8 dereferenceable(8) %5, ptr noundef nonnull align 1 dereferenceable(1) %6)
  %7 = load ptr, ptr %result.addr, align 8, !tbaa !3
  store double %call1, ptr %7, align 8, !tbaa !7
  store i1 false, ptr %retval, align 1
  br label %return

if.end:                                           ; preds = %lor.lhs.false
  store i1 true, ptr %retval, align 1
  br label %return

return:                                           ; preds = %if.end, %if.then
  %8 = load i1, ptr %retval, align 1
  ret i1 %8
}

; Function Attrs: inlinehint mustprogress uwtable
define linkonce_odr noundef double @_ZN5boost4math3pdfIdNS0_8policies6policyINS2_14default_policyES4_S4_S4_S4_S4_S4_S4_S4_S4_S4_S4_S4_EEEET_RKNS0_36non_central_chi_squared_distributionIS6_T0_EERKS6_(ptr noundef nonnull align 8 dereferenceable(16) %dist, ptr noundef nonnull align 8 dereferenceable(8) %x) #5 comdat {
entry:
  %dist.addr = alloca ptr, align 8
  %x.addr = alloca ptr, align 8
  store ptr %dist, ptr %dist.addr, align 8, !tbaa !3
  store ptr %x, ptr %x.addr, align 8, !tbaa !3
  %0 = load ptr, ptr %dist.addr, align 8, !tbaa !3
  %1 = load ptr, ptr %x.addr, align 8, !tbaa !3
  %call = call noundef double @_ZN5boost4math6detail8nccs_pdfIdNS0_8policies6policyINS3_14default_policyES5_S5_S5_S5_S5_S5_S5_S5_S5_S5_S5_S5_EEEET_RKNS0_36non_central_chi_squared_distributionIS7_T0_EERKS7_(ptr noundef nonnull align 8 dereferenceable(16) %0, ptr noundef nonnull align 8 dereferenceable(8) %1)
  ret double %call
}

; Function Attrs: mustprogress uwtable
define linkonce_odr void @_ZN5boost4math36non_central_chi_squared_distributionIdNS0_8policies6policyINS2_14default_policyES4_S4_S4_S4_S4_S4_S4_S4_S4_S4_S4_S4_EEEC2Edd(ptr noundef nonnull align 8 dereferenceable(16) %this, double noundef %df_, double noundef %lambda) unnamed_addr #2 comdat align 2 {
entry:
  %this.addr = alloca ptr, align 8
  %df_.addr = alloca double, align 8
  %lambda.addr = alloca double, align 8
  %function = alloca ptr, align 8
  %r = alloca double, align 8
  %ref.tmp = alloca %"class.boost::math::policies::policy", align 1
  %ref.tmp4 = alloca %"class.boost::math::policies::policy", align 1
  store ptr %this, ptr %this.addr, align 8, !tbaa !3
  store double %df_, ptr %df_.addr, align 8, !tbaa !7
  store double %lambda, ptr %lambda.addr, align 8, !tbaa !7
  %this1 = load ptr, ptr %this.addr, align 8
  %df = getelementptr inbounds nuw %"class.boost::math::non_central_chi_squared_distribution", ptr %this1, i32 0, i32 0
  %0 = load double, ptr %df_.addr, align 8, !tbaa !7
  store double %0, ptr %df, align 8, !tbaa !20
  %ncp = getelementptr inbounds nuw %"class.boost::math::non_central_chi_squared_distribution", ptr %this1, i32 0, i32 1
  %1 = load double, ptr %lambda.addr, align 8, !tbaa !7
  store double %1, ptr %ncp, align 8, !tbaa !22
  call void @llvm.lifetime.start.p0(i64 8, ptr %function) #25
  store ptr @.str, ptr %function, align 8, !tbaa !3
  call void @llvm.lifetime.start.p0(i64 8, ptr %r) #25
  %2 = load ptr, ptr %function, align 8, !tbaa !3
  %df2 = getelementptr inbounds nuw %"class.boost::math::non_central_chi_squared_distribution", ptr %this1, i32 0, i32 0
  call void @llvm.lifetime.start.p0(i64 1, ptr %ref.tmp) #25
  %call = call noundef zeroext i1 @_ZN5boost4math6detail8check_dfIdNS0_8policies6policyINS3_14default_policyES5_S5_S5_S5_S5_S5_S5_S5_S5_S5_S5_S5_EEEEbPKcRKT_PS9_RKT0_(ptr noundef %2, ptr noundef nonnull align 8 dereferenceable(8) %df2, ptr noundef %r, ptr noundef nonnull align 1 dereferenceable(1) %ref.tmp)
  call void @llvm.lifetime.end.p0(i64 1, ptr %ref.tmp) #25
  %3 = load ptr, ptr %function, align 8, !tbaa !3
  %ncp3 = getelementptr inbounds nuw %"class.boost::math::non_central_chi_squared_distribution", ptr %this1, i32 0, i32 1
  %4 = load double, ptr %ncp3, align 8, !tbaa !22
  call void @llvm.lifetime.start.p0(i64 1, ptr %ref.tmp4) #25
  %call5 = call noundef zeroext i1 @_ZN5boost4math6detail20check_non_centralityIdNS0_8policies6policyINS3_14default_policyES5_S5_S5_S5_S5_S5_S5_S5_S5_S5_S5_S5_EEEEbPKcT_PS9_RKT0_(ptr noundef %3, double noundef %4, ptr noundef %r, ptr noundef nonnull align 1 dereferenceable(1) %ref.tmp4)
  call void @llvm.lifetime.end.p0(i64 1, ptr %ref.tmp4) #25
  call void @llvm.lifetime.end.p0(i64 8, ptr %r) #25
  call void @llvm.lifetime.end.p0(i64 8, ptr %function) #25
  ret void
}

; Function Attrs: mustprogress uwtable
define noundef double @_ZNK8QuantLib30SquareRootProcessRNDCalculator3pdfEdd(ptr noundef nonnull align 8 dereferenceable(48) %this, double noundef %v, double noundef %t) unnamed_addr #2 align 2 {
entry:
  %this.addr = alloca ptr, align 8
  %v.addr = alloca double, align 8
  %t.addr = alloca double, align 8
  %e = alloca double, align 8
  %k = alloca double, align 8
  %ncp = alloca double, align 8
  %dist = alloca %"class.boost::math::non_central_chi_squared_distribution", align 8
  %ref.tmp = alloca double, align 8
  store ptr %this, ptr %this.addr, align 8, !tbaa !3
  store double %v, ptr %v.addr, align 8, !tbaa !7
  store double %t, ptr %t.addr, align 8, !tbaa !7
  %this1 = load ptr, ptr %this.addr, align 8
  call void @llvm.lifetime.start.p0(i64 8, ptr %e) #25
  %kappa_ = getelementptr inbounds nuw %"class.QuantLib::SquareRootProcessRNDCalculator", ptr %this1, i32 0, i32 2
  %0 = load double, ptr %kappa_, align 8, !tbaa !14
  %fneg = fneg double %0
  %1 = load double, ptr %t.addr, align 8, !tbaa !7
  %mul = fmul double %fneg, %1
  %call = call double @exp(double noundef %mul) #25, !tbaa !18
  store double %call, ptr %e, align 8, !tbaa !7
  call void @llvm.lifetime.start.p0(i64 8, ptr %k) #25
  %d_ = getelementptr inbounds nuw %"class.QuantLib::SquareRootProcessRNDCalculator", ptr %this1, i32 0, i32 4
  %2 = load double, ptr %d_, align 8, !tbaa !16
  %3 = load double, ptr %e, align 8, !tbaa !7
  %sub = fsub double 1.000000e+00, %3
  %div = fdiv double %2, %sub
  store double %div, ptr %k, align 8, !tbaa !7
  call void @llvm.lifetime.start.p0(i64 8, ptr %ncp) #25
  %4 = load double, ptr %k, align 8, !tbaa !7
  %v0_ = getelementptr inbounds nuw %"class.QuantLib::SquareRootProcessRNDCalculator", ptr %this1, i32 0, i32 1
  %5 = load double, ptr %v0_, align 8, !tbaa !11
  %mul2 = fmul double %4, %5
  %6 = load double, ptr %e, align 8, !tbaa !7
  %mul3 = fmul double %mul2, %6
  store double %mul3, ptr %ncp, align 8, !tbaa !7
  call void @llvm.lifetime.start.p0(i64 16, ptr %dist) #25
  %df_ = getelementptr inbounds nuw %"class.QuantLib::SquareRootProcessRNDCalculator", ptr %this1, i32 0, i32 5
  %7 = load double, ptr %df_, align 8, !tbaa !17
  %8 = load double, ptr %ncp, align 8, !tbaa !7
  call void @_ZN5boost4math36non_central_chi_squared_distributionIdNS0_8policies6policyINS2_14default_policyES4_S4_S4_S4_S4_S4_S4_S4_S4_S4_S4_S4_EEEC2Edd(ptr noundef nonnull align 8 dereferenceable(16) %dist, double noundef %7, double noundef %8)
  call void @llvm.lifetime.start.p0(i64 8, ptr %ref.tmp) #25
  %9 = load double, ptr %v.addr, align 8, !tbaa !7
  %10 = load double, ptr %k, align 8, !tbaa !7
  %mul4 = fmul double %9, %10
  store double %mul4, ptr %ref.tmp, align 8, !tbaa !7
  %call5 = call noundef double @_ZN5boost4math3pdfIdNS0_8policies6policyINS2_14default_policyES4_S4_S4_S4_S4_S4_S4_S4_S4_S4_S4_S4_EEEET_RKNS0_36non_central_chi_squared_distributionIS6_T0_EERKS6_(ptr noundef nonnull align 8 dereferenceable(16) %dist, ptr noundef nonnull align 8 dereferenceable(8) %ref.tmp)
  %11 = load double, ptr %k, align 8, !tbaa !7
  %mul6 = fmul double %call5, %11
  call void @llvm.lifetime.end.p0(i64 8, ptr %ref.tmp) #25
  call void @llvm.lifetime.end.p0(i64 16, ptr %dist) #25
  call void @llvm.lifetime.end.p0(i64 8, ptr %ncp) #25
  call void @llvm.lifetime.end.p0(i64 8, ptr %k) #25
  call void @llvm.lifetime.end.p0(i64 8, ptr %e) #25
  ret double %mul6
}